target datalayout = "e-m:e-p270:32:32-p271:32:32-p272:64:64-i64:64-i128:128-f80:128-n8:16:32:64-S128"
target triple = "x86_64-pc-linux-gnu"

%"struct.tinyobj::vertex_index_t" = type { i32, i32, i32 }

@.str.79 = private unnamed_addr constant [5 x i8] c"/ \09\0D\00", align 1

; Function Attrs: inlinehint mustprogress nounwind ssp uwtable
define internal noundef zeroext i1 @_ZN7tinyobjL8fixIndexEiiPi(i32 noundef %0, i32 noundef %1, ptr noundef %2) #5 {
  %4 = alloca i1, align 1
  %5 = alloca i32, align 4
  %6 = alloca i32, align 4
  %7 = alloca ptr, align 8
  store i32 %0, ptr %5, align 4, !tbaa !63
  store i32 %1, ptr %6, align 4, !tbaa !63
  store ptr %2, ptr %7, align 8, !tbaa !120
  %8 = load ptr, ptr %7, align 8, !tbaa !120
  %9 = icmp ne ptr %8, null
  br i1 %9, label %11, label %10

10:                                               ; preds = %3
  store i1 false, ptr %4, align 1
  br label %31

11:                                               ; preds = %3
  %12 = load i32, ptr %5, align 4, !tbaa !63
  %13 = icmp sgt i32 %12, 0
  br i1 %13, label %14, label %18

14:                                               ; preds = %11
  %15 = load i32, ptr %5, align 4, !tbaa !63
  %16 = sub nsw i32 %15, 1
  %17 = load ptr, ptr %7, align 8, !tbaa !120
  store i32 %16, ptr %17, align 4, !tbaa !63
  store i1 true, ptr %4, align 1
  br label %31

18:                                               ; preds = %11
  %19 = load i32, ptr %5, align 4, !tbaa !63
  %20 = icmp eq i32 %19, 0
  br i1 %20, label %21, label %22

21:                                               ; preds = %18
  store i1 false, ptr %4, align 1
  br label %31

22:                                               ; preds = %18
  %23 = load i32, ptr %5, align 4, !tbaa !63
  %24 = icmp slt i32 %23, 0
  br i1 %24, label %25, label %30

25:                                               ; preds = %22
  %26 = load i32, ptr %6, align 4, !tbaa !63
  %27 = load i32, ptr %5, align 4, !tbaa !63
  %28 = add nsw i32 %26, %27
  %29 = load ptr, ptr %7, align 8, !tbaa !120
  store i32 %28, ptr %29, align 4, !tbaa !63
  store i1 true, ptr %4, align 1
  br label %31

30:                                               ; preds = %22
  store i1 false, ptr %4, align 1
  br label %31

31:                                               ; preds = %30, %25, %21, %14, %10
  %32 = load i1, ptr %4, align 1
  ret i1 %32
}

; Function Attrs: inlinehint mustprogress nounwind ssp willreturn memory(read) uwtable
define available_externally i32 @atoi(ptr noundef nonnull %0) #11 {
  %2 = alloca ptr, align 8
  store ptr %0, ptr %2, align 8, !tbaa !33
  %3 = load ptr, ptr %2, align 8, !tbaa !33
  %4 = call i64 @__isoc23_strtol(ptr noundef %3, ptr noundef null, i32 noundef 10) #31
  %5 = trunc i64 %4 to i32
  ret i32 %5
}

; Function Attrs: mustprogress nounwind ssp uwtable
define linkonce_odr void @_ZN7tinyobj14vertex_index_tC2Ei(ptr noundef nonnull align 4 dereferenceable(12) %0, i32 noundef %1) unnamed_addr #0 comdat align 2 {
  %3 = alloca ptr, align 8
  %4 = alloca i32, align 4
  store ptr %0, ptr %3, align 8, !tbaa !502
  store i32 %1, ptr %4, align 4, !tbaa !63
  %5 = load ptr, ptr %3, align 8
  %6 = getelementptr inbounds nuw %"struct.tinyobj::vertex_index_t", ptr %5, i32 0, i32 0
  %7 = load i32, ptr %4, align 4, !tbaa !63
  store i32 %7, ptr %6, align 4, !tbaa !385
  %8 = getelementptr inbounds nuw %"struct.tinyobj::vertex_index_t", ptr %5, i32 0, i32 1
  %9 = load i32, ptr %4, align 4, !tbaa !63
  store i32 %9, ptr %8, align 4, !tbaa !388
  %10 = getelementptr inbounds nuw %"struct.tinyobj::vertex_index_t", ptr %5, i32 0, i32 2
  %11 = load i32, ptr %4, align 4, !tbaa !63
  store i32 %11, ptr %10, align 4, !tbaa !387
  ret void
}

; Function Attrs: mustprogress ssp uwtable
define internal noundef zeroext i1 @_ZN7tinyobjL11parseTripleEPPKciiiPNS_14vertex_index_tE(ptr noundef %0, i32 noundef %1, i32 noundef %2, i32 noundef %3, ptr noundef %4) #1 {
  %6 = alloca i1, align 1
  %7 = alloca ptr, align 8
  %8 = alloca i32, align 4
  %9 = alloca i32, align 4
  %10 = alloca i32, align 4
  %11 = alloca ptr, align 8
  %12 = alloca %"struct.tinyobj::vertex_index_t", align 4
  %13 = alloca i32, align 4
  store ptr %0, ptr %7, align 8, !tbaa !54
  store i32 %1, ptr %8, align 4, !tbaa !63
  store i32 %2, ptr %9, align 4, !tbaa !63
  store i32 %3, ptr %10, align 4, !tbaa !63
  store ptr %4, ptr %11, align 8, !tbaa !502
  %14 = load ptr, ptr %11, align 8, !tbaa !502
  %15 = icmp ne ptr %14, null
  br i1 %15, label %17, label %16

16:                                               ; preds = %5
  store i1 false, ptr %6, align 1
  br label %112

17:                                               ; preds = %5
  call void @llvm.lifetime.start.p0(i64 12, ptr %12) #31
  call void @_ZN7tinyobj14vertex_index_tC2Ei(ptr noundef nonnull align 4 dereferenceable(12) %12, i32 noundef -1)
  %18 = load ptr, ptr %7, align 8, !tbaa !54
  %19 = load ptr, ptr %18, align 8, !tbaa !33
  %20 = call i32 @atoi(ptr noundef %19) #26
  %21 = load i32, ptr %8, align 4, !tbaa !63
  %22 = getelementptr inbounds nuw %"struct.tinyobj::vertex_index_t", ptr %12, i32 0, i32 0
  %23 = call noundef zeroext i1 @_ZN7tinyobjL8fixIndexEiiPi(i32 noundef %20, i32 noundef %21, ptr noundef %22)
  br i1 %23, label %25, label %24

24:                                               ; preds = %17
  store i1 false, ptr %6, align 1
  store i32 1, ptr %13, align 4
  br label %111

25:                                               ; preds = %17
  %26 = load ptr, ptr %7, align 8, !tbaa !54
  %27 = load ptr, ptr %26, align 8, !tbaa !33
  %28 = call i64 @strcspn(ptr noundef %27, ptr noundef @.str.79) #26
  %29 = load ptr, ptr %7, align 8, !tbaa !54
  %30 = load ptr, ptr %29, align 8, !tbaa !33
  %31 = getelementptr inbounds nuw i8, ptr %30, i64 %28
  store ptr %31, ptr %29, align 8, !tbaa !33
  %32 = load ptr, ptr %7, align 8, !tbaa !54
  %33 = load ptr, ptr %32, align 8, !tbaa !33
  %34 = getelementptr inbounds i8, ptr %33, i64 0
  %35 = load i8, ptr %34, align 1, !tbaa !19
  %36 = sext i8 %35 to i32
  %37 = icmp ne i32 %36, 47
  br i1 %37, label %38, label %40

38:                                               ; preds = %25
  %39 = load ptr, ptr %11, align 8, !tbaa !502
  call void @llvm.memcpy.p0.p0.i64(ptr align 4 %39, ptr align 4 %12, i64 12, i1 false), !tbaa.struct !503
  store i1 true, ptr %6, align 1
  store i32 1, ptr %13, align 4
  br label %111

40:                                               ; preds = %25
  %41 = load ptr, ptr %7, align 8, !tbaa !54
  %42 = load ptr, ptr %41, align 8, !tbaa !33
  %43 = getelementptr inbounds nuw i8, ptr %42, i32 1
  store ptr %43, ptr %41, align 8, !tbaa !33
  %44 = load ptr, ptr %7, align 8, !tbaa !54
  %45 = load ptr, ptr %44, align 8, !tbaa !33
  %46 = getelementptr inbounds i8, ptr %45, i64 0
  %47 = load i8, ptr %46, align 1, !tbaa !19
  %48 = sext i8 %47 to i32
  %49 = icmp eq i32 %48, 47
  br i1 %49, label %50, label %69

50:                                               ; preds = %40
  %51 = load ptr, ptr %7, align 8, !tbaa !54
  %52 = load ptr, ptr %51, align 8, !tbaa !33
  %53 = getelementptr inbounds nuw i8, ptr %52, i32 1
  store ptr %53, ptr %51, align 8, !tbaa !33
  %54 = load ptr, ptr %7, align 8, !tbaa !54
  %55 = load ptr, ptr %54, align 8, !tbaa !33
  %56 = call i32 @atoi(ptr noundef %55) #26
  %57 = load i32, ptr %9, align 4, !tbaa !63
  %58 = getelementptr inbounds nuw %"struct.tinyobj::vertex_index_t", ptr %12, i32 0, i32 2
  %59 = call noundef zeroext i1 @_ZN7tinyobjL8fixIndexEiiPi(i32 noundef %56, i32 noundef %57, ptr noundef %58)
  br i1 %59, label %61, label %60

60:                                               ; preds = %50
  store i1 false, ptr %6, align 1
  store i32 1, ptr %13, align 4
  br label %111

61:                                               ; preds = %50
  %62 = load ptr, ptr %7, align 8, !tbaa !54
  %63 = load ptr, ptr %62, align 8, !tbaa !33
  %64 = call i64 @strcspn(ptr noundef %63, ptr noundef @.str.79) #26
  %65 = load ptr, ptr %7, align 8, !tbaa !54
  %66 = load ptr, ptr %65, align 8, !tbaa !33
  %67 = getelementptr inbounds nuw i8, ptr %66, i64 %64
  store ptr %67, ptr %65, align 8, !tbaa !33
  %68 = load ptr, ptr %11, align 8, !tbaa !502
  call void @llvm.memcpy.p0.p0.i64(ptr align 4 %68, ptr align 4 %12, i64 12, i1 false), !tbaa.struct !503
  store i1 true, ptr %6, align 1
  store i32 1, ptr %13, align 4
  br label %111

69:                                               ; preds = %40
  %70 = load ptr, ptr %7, align 8, !tbaa !54
  %71 = load ptr, ptr %70, align 8, !tbaa !33
  %72 = call i32 @atoi(ptr noundef %71) #26
  %73 = load i32, ptr %10, align 4, !tbaa !63
  %74 = getelementptr inbounds nuw %"struct.tinyobj::vertex_index_t", ptr %12, i32 0, i32 1
  %75 = call noundef zeroext i1 @_ZN7tinyobjL8fixIndexEiiPi(i32 noundef %72, i32 noundef %73, ptr noundef %74)
  br i1 %75, label %77, label %76

76:                                               ; preds = %69
  store i1 false, ptr %6, align 1
  store i32 1, ptr %13, align 4
  br label %111

77:                                               ; preds = %69
  %78 = load ptr, ptr %7, align 8, !tbaa !54
  %79 = load ptr, ptr %78, align 8, !tbaa !33
  %80 = call i64 @strcspn(ptr noundef %79, ptr noundef @.str.79) #26
  %81 = load ptr, ptr %7, align 8, !tbaa !54
  %82 = load ptr, ptr %81, align 8, !tbaa !33
  %83 = getelementptr inbounds nuw i8, ptr %82, i64 %80
  store ptr %83, ptr %81, align 8, !tbaa !33
  %84 = load ptr, ptr %7, align 8, !tbaa !54
  %85 = load ptr, ptr %84, align 8, !tbaa !33
  %86 = getelementptr inbounds i8, ptr %85, i64 0
  %87 = load i8, ptr %86, align 1, !tbaa !19
  %88 = sext i8 %87 to i32
  %89 = icmp ne i32 %88, 47
  br i1 %89, label %90, label %92

90:                                               ; preds = %77
  %91 = load ptr, ptr %11, align 8, !tbaa !502
  call void @llvm.memcpy.p0.p0.i64(ptr align 4 %91, ptr align 4 %12, i64 12, i1 false), !tbaa.struct !503
  store i1 true, ptr %6, align 1
  store i32 1, ptr %13, align 4
  br label %111

92:                                               ; preds = %77
  %93 = load ptr, ptr %7, align 8, !tbaa !54
  %94 = load ptr, ptr %93, align 8, !tbaa !33
  %95 = getelementptr inbounds nuw i8, ptr %94, i32 1
  store ptr %95, ptr %93, align 8, !tbaa !33
  %96 = load ptr, ptr %7, align 8, !tbaa !54
  %97 = load ptr, ptr %96, align 8, !tbaa !33
  %98 = call i32 @atoi(ptr noundef %97) #26
  %99 = load i32, ptr %9, align 4, !tbaa !63
  %100 = getelementptr inbounds nuw %"struct.tinyobj::vertex_index_t", ptr %12, i32 0, i32 2
  %101 = call noundef zeroext i1 @_ZN7tinyobjL8fixIndexEiiPi(i32 noundef %98, i32 noundef %99, ptr noundef %100)
  br i1 %101, label %103, label %102

102:                                              ; preds = %92
  store i1 false, ptr %6, align 1
  store i32 1, ptr %13, align 4
  br label %111

103:                                              ; preds = %92
  %104 = load ptr, ptr %7, align 8, !tbaa !54
  %105 = load ptr, ptr %104, align 8, !tbaa !33
  %106 = call i64 @strcspn(ptr noundef %105, ptr noundef @.str.79) #26
  %107 = load ptr, ptr %7, align 8, !tbaa !54
  %108 = load ptr, ptr %107, align 8, !tbaa !33
  %109 = getelementptr inbounds nuw i8, ptr %108, i64 %106
  store ptr %109, ptr %107, align 8, !tbaa !33
  %110 = load ptr, ptr %11, align 8, !tbaa !502
  call void @llvm.memcpy.p0.p0.i64(ptr align 4 %110, ptr align 4 %12, i64 12, i1 false), !tbaa.struct !503
  store i1 true, ptr %6, align 1
  store i32 1, ptr %13, align 4
  br label %111

111:                                              ; preds = %103, %102, %90, %76, %61, %60, %38, %24
  call void @llvm.lifetime.end.p0(i64 12, ptr %12) #31
  br label %112

112:                                              ; preds = %111, %16
  %113 = load i1, ptr %6, align 1
  ret i1 %113
}