; Function Attrs: mustprogress nounwind ssp uwtable
define internal fastcc noundef zeroext i1 @_ZN7tinyobjL11parseTripleEPPKciiiPNS_14vertex_index_tE(ptr noundef nonnull captures(none) %0, i32 noundef %1, i32 noundef %2, i32 noundef %3, ptr noundef nonnull writeonly captures(none) %4) unnamed_addr #1 {
  %6 = load ptr, ptr %0, align 8, !tbaa !100
  %7 = tail call i64 @__isoc23_strtol(ptr noundef nonnull %6, ptr noundef null, i32 noundef 10) #36
  %8 = trunc i64 %7 to i32
  %9 = icmp sgt i32 %8, 0
  br i1 %9, label %10, label %12

10:                                               ; preds = %5
  %11 = add nsw i32 %8, -1
  br label %16

12:                                               ; preds = %5
  %13 = icmp eq i32 %8, 0
  br i1 %13, label %_ZN7tinyobjL8fixIndexEiiPi.exit, label %14

14:                                               ; preds = %12
  %15 = add nsw i32 %1, %8
  br label %16

16:                                               ; preds = %14, %10
  %.sroa.0.0.ph = phi i32 [ %11, %10 ], [ %15, %14 ]
  %17 = load ptr, ptr %0, align 8, !tbaa !100
  %18 = tail call i64 @strcspn(ptr noundef %17, ptr noundef nonnull @.str.79) #38
  %19 = getelementptr inbounds nuw i8, ptr %17, i64 %18
  store ptr %19, ptr %0, align 8, !tbaa !100
  %20 = load i8, ptr %19, align 1, !tbaa !15
  %.not = icmp eq i8 %20, 47
  br i1 %.not, label %21, label %_ZN7tinyobjL8fixIndexEiiPi.exit.sink.split

21:                                               ; preds = %16
  %22 = getelementptr inbounds nuw i8, ptr %19, i64 1
  store ptr %22, ptr %0, align 8, !tbaa !100
  %23 = load i8, ptr %22, align 1, !tbaa !15
  %24 = icmp eq i8 %23, 47
  br i1 %24, label %25, label %36

25:                                               ; preds = %21
  %26 = getelementptr inbounds nuw i8, ptr %19, i64 2
  store ptr %26, ptr %0, align 8, !tbaa !100
  %27 = tail call i64 @__isoc23_strtol(ptr noundef nonnull %26, ptr noundef null, i32 noundef 10) #36
  %28 = trunc i64 %27 to i32
  %29 = icmp sgt i32 %28, 0
  br i1 %29, label %30, label %32

30:                                               ; preds = %25
  %31 = add nsw i32 %28, -1
  br label %_ZN7tinyobjL8fixIndexEiiPi.exit.sink.split.sink.split

32:                                               ; preds = %25
  %33 = icmp eq i32 %28, 0
  br i1 %33, label %_ZN7tinyobjL8fixIndexEiiPi.exit, label %34

34:                                               ; preds = %32
  %35 = add nsw i32 %2, %28
  br label %_ZN7tinyobjL8fixIndexEiiPi.exit.sink.split.sink.split

36:                                               ; preds = %21
  %37 = tail call i64 @__isoc23_strtol(ptr noundef nonnull %22, ptr noundef null, i32 noundef 10) #36
  %38 = trunc i64 %37 to i32
  %39 = icmp sgt i32 %38, 0
  br i1 %39, label %40, label %42

40:                                               ; preds = %36
  %41 = add nsw i32 %38, -1
  br label %46

42:                                               ; preds = %36
  %43 = icmp eq i32 %38, 0
  br i1 %43, label %_ZN7tinyobjL8fixIndexEiiPi.exit, label %44

44:                                               ; preds = %42
  %45 = add nsw i32 %3, %38
  br label %46

46:                                               ; preds = %44, %40
  %.sroa.8.0.ph = phi i32 [ %41, %40 ], [ %45, %44 ]
  %47 = load ptr, ptr %0, align 8, !tbaa !100
  %48 = tail call i64 @strcspn(ptr noundef %47, ptr noundef nonnull @.str.79) #38
  %49 = getelementptr inbounds nuw i8, ptr %47, i64 %48
  store ptr %49, ptr %0, align 8, !tbaa !100
  %50 = load i8, ptr %49, align 1, !tbaa !15
  %.not28 = icmp eq i8 %50, 47
  br i1 %.not28, label %51, label %_ZN7tinyobjL8fixIndexEiiPi.exit.sink.split

51:                                               ; preds = %46
  %52 = getelementptr inbounds nuw i8, ptr %49, i64 1
  store ptr %52, ptr %0, align 8, !tbaa !100
  %53 = tail call i64 @__isoc23_strtol(ptr noundef nonnull %52, ptr noundef null, i32 noundef 10) #36
  %54 = trunc i64 %53 to i32
  %55 = icmp sgt i32 %54, 0
  br i1 %55, label %56, label %58

56:                                               ; preds = %51
  %57 = add nsw i32 %54, -1
  br label %_ZN7tinyobjL8fixIndexEiiPi.exit.sink.split.sink.split

58:                                               ; preds = %51
  %59 = icmp eq i32 %54, 0
  br i1 %59, label %_ZN7tinyobjL8fixIndexEiiPi.exit, label %60

60:                                               ; preds = %58
  %61 = add nsw i32 %2, %54
  br label %_ZN7tinyobjL8fixIndexEiiPi.exit.sink.split.sink.split

_ZN7tinyobjL8fixIndexEiiPi.exit.sink.split.sink.split: ; preds = %56, %60, %30, %34
  %.sroa.8.0.ph.sink.ph = phi i32 [ -1, %34 ], [ -1, %30 ], [ %.sroa.8.0.ph, %60 ], [ %.sroa.8.0.ph, %56 ]
  %.sroa.10.1.ph.sink.ph = phi i32 [ %35, %34 ], [ %31, %30 ], [ %61, %60 ], [ %57, %56 ]
  %62 = load ptr, ptr %0, align 8, !tbaa !100
  %63 = tail call i64 @strcspn(ptr noundef %62, ptr noundef nonnull @.str.79) #38
  %64 = getelementptr inbounds nuw i8, ptr %62, i64 %63
  store ptr %64, ptr %0, align 8, !tbaa !100
  br label %_ZN7tinyobjL8fixIndexEiiPi.exit.sink.split

_ZN7tinyobjL8fixIndexEiiPi.exit.sink.split:       ; preds = %_ZN7tinyobjL8fixIndexEiiPi.exit.sink.split.sink.split, %46, %16
  %.sroa.8.0.ph.sink = phi i32 [ -1, %16 ], [ %.sroa.8.0.ph, %46 ], [ %.sroa.8.0.ph.sink.ph, %_ZN7tinyobjL8fixIndexEiiPi.exit.sink.split.sink.split ]
  %.sroa.10.1.ph.sink = phi i32 [ -1, %16 ], [ -1, %46 ], [ %.sroa.10.1.ph.sink.ph, %_ZN7tinyobjL8fixIndexEiiPi.exit.sink.split.sink.split ]
  store i32 %.sroa.0.0.ph, ptr %4, align 4, !tbaa !118
  %.sroa.8.0..sroa_idx48 = getelementptr inbounds nuw i8, ptr %4, i64 4
  store i32 %.sroa.8.0.ph.sink, ptr %.sroa.8.0..sroa_idx48, align 4, !tbaa !118
  %.sroa.10.0..sroa_idx54 = getelementptr inbounds nuw i8, ptr %4, i64 8
  store i32 %.sroa.10.1.ph.sink, ptr %.sroa.10.0..sroa_idx54, align 4, !tbaa !118
  br label %_ZN7tinyobjL8fixIndexEiiPi.exit

_ZN7tinyobjL8fixIndexEiiPi.exit:                  ; preds = %_ZN7tinyobjL8fixIndexEiiPi.exit.sink.split, %58, %42, %32, %12
  %.1 = phi i1 [ false, %12 ], [ false, %32 ], [ false, %42 ], [ false, %58 ], [ true, %_ZN7tinyobjL8fixIndexEiiPi.exit.sink.split ]
  ret i1 %.1
}